target datalayout = "e-m:e-p270:32:32-p271:32:32-p272:64:64-i64:64-i128:128-f80:128-n8:16:32:64-S128"
target triple = "x86_64-pc-linux-gnu"

%struct.uv__queue = type { ptr, ptr }
%struct.uv__io_s = type { ptr, %struct.uv__queue, %struct.uv__queue, i32, i32, i32 }
%struct.sockaddr = type { i16, [14 x i8] }
%struct.uv_udp_s = type { ptr, ptr, i32, ptr, %struct.uv__queue, %union.anon.1, ptr, i32, i64, i64, ptr, ptr, %struct.uv__io_s, %struct.uv__queue, %struct.uv__queue }
%union.anon.1 = type { [4 x ptr] }

; Function Attrs: nounwind uwtable
define hidden i32 @uv__udp_check_before_send(ptr noundef %0, ptr noundef %1) #0 {
  %3 = alloca i32, align 4
  %4 = alloca ptr, align 8
  %5 = alloca ptr, align 8
  %6 = alloca i32, align 4
  %7 = alloca i32, align 4
  store ptr %0, ptr %4, align 8
  store ptr %1, ptr %5, align 8
  call void @llvm.lifetime.start.p0(i64 4, ptr %6) #13
  %8 = load ptr, ptr %4, align 8
  %9 = getelementptr inbounds nuw %struct.uv_udp_s, ptr %8, i32 0, i32 2
  %10 = load i32, ptr %9, align 8
  %11 = icmp ne i32 %10, 15
  br i1 %11, label %12, label %13

12:                                               ; preds = %2
  store i32 -22, ptr %3, align 4
  store i32 1, ptr %7, align 4
  br label %64

13:                                               ; preds = %2
  %14 = load ptr, ptr %5, align 8
  %15 = icmp ne ptr %14, null
  br i1 %15, label %16, label %23

16:                                               ; preds = %13
  %17 = load ptr, ptr %4, align 8
  %18 = getelementptr inbounds nuw %struct.uv_udp_s, ptr %17, i32 0, i32 7
  %19 = load i32, ptr %18, align 8
  %20 = and i32 %19, 33554432
  %21 = icmp ne i32 %20, 0
  br i1 %21, label %22, label %23

22:                                               ; preds = %16
  store i32 -106, ptr %3, align 4
  store i32 1, ptr %7, align 4
  br label %64

23:                                               ; preds = %16, %13
  %24 = load ptr, ptr %5, align 8
  %25 = icmp eq ptr %24, null
  br i1 %25, label %26, label %33

26:                                               ; preds = %23
  %27 = load ptr, ptr %4, align 8
  %28 = getelementptr inbounds nuw %struct.uv_udp_s, ptr %27, i32 0, i32 7
  %29 = load i32, ptr %28, align 8
  %30 = and i32 %29, 33554432
  %31 = icmp ne i32 %30, 0
  br i1 %31, label %33, label %32

32:                                               ; preds = %26
  store i32 -89, ptr %3, align 4
  store i32 1, ptr %7, align 4
  br label %64

33:                                               ; preds = %26, %23
  %34 = load ptr, ptr %5, align 8
  %35 = icmp ne ptr %34, null
  br i1 %35, label %36, label %61

36:                                               ; preds = %33
  %37 = load ptr, ptr %5, align 8
  %38 = getelementptr inbounds nuw %struct.sockaddr, ptr %37, i32 0, i32 0
  %39 = load i16, ptr %38, align 2
  %40 = zext i16 %39 to i32
  %41 = icmp eq i32 %40, 2
  br i1 %41, label %42, label %43

42:                                               ; preds = %36
  store i32 16, ptr %6, align 4
  br label %60

43:                                               ; preds = %36
  %44 = load ptr, ptr %5, align 8
  %45 = getelementptr inbounds nuw %struct.sockaddr, ptr %44, i32 0, i32 0
  %46 = load i16, ptr %45, align 2
  %47 = zext i16 %46 to i32
  %48 = icmp eq i32 %47, 10
  br i1 %48, label %49, label %50

49:                                               ; preds = %43
  store i32 28, ptr %6, align 4
  br label %59

50:                                               ; preds = %43
  %51 = load ptr, ptr %5, align 8
  %52 = getelementptr inbounds nuw %struct.sockaddr, ptr %51, i32 0, i32 0
  %53 = load i16, ptr %52, align 2
  %54 = zext i16 %53 to i32
  %55 = icmp eq i32 %54, 1
  br i1 %55, label %56, label %57

56:                                               ; preds = %50
  store i32 110, ptr %6, align 4
  br label %58

57:                                               ; preds = %50
  store i32 -22, ptr %3, align 4
  store i32 1, ptr %7, align 4
  br label %64

58:                                               ; preds = %56
  br label %59

59:                                               ; preds = %58, %49
  br label %60

60:                                               ; preds = %59, %42
  br label %62

61:                                               ; preds = %33
  store i32 0, ptr %6, align 4
  br label %62

62:                                               ; preds = %61, %60
  %63 = load i32, ptr %6, align 4
  store i32 %63, ptr %3, align 4
  store i32 1, ptr %7, align 4
  br label %64

64:                                               ; preds = %62, %57, %32, %22, %12
  call void @llvm.lifetime.end.p0(i64 4, ptr %6) #13
  %65 = load i32, ptr %3, align 4
  ret i32 %65
}

; Function Attrs: nounwind uwtable
define dso_local i32 @uv_udp_try_send(ptr noundef %0, ptr noundef %1, i32 noundef %2, ptr noundef %3) #0 {
  %5 = alloca i32, align 4
  %6 = alloca ptr, align 8
  %7 = alloca ptr, align 8
  %8 = alloca i32, align 4
  %9 = alloca ptr, align 8
  %10 = alloca i32, align 4
  %11 = alloca i32, align 4
  store ptr %0, ptr %6, align 8
  store ptr %1, ptr %7, align 8
  store i32 %2, ptr %8, align 4
  store ptr %3, ptr %9, align 8
  call void @llvm.lifetime.start.p0(i64 4, ptr %10) #13
  %12 = load ptr, ptr %6, align 8
  %13 = load ptr, ptr %9, align 8
  %14 = call i32 @uv__udp_check_before_send(ptr noundef %12, ptr noundef %13)
  store i32 %14, ptr %10, align 4
  %15 = load i32, ptr %10, align 4
  %16 = icmp slt i32 %15, 0
  br i1 %16, label %17, label %19

17:                                               ; preds = %4
  %18 = load i32, ptr %10, align 4
  store i32 %18, ptr %5, align 4
  store i32 1, ptr %11, align 4
  br label %26

19:                                               ; preds = %4
  %20 = load ptr, ptr %6, align 8
  %21 = load ptr, ptr %7, align 8
  %22 = load i32, ptr %8, align 4
  %23 = load ptr, ptr %9, align 8
  %24 = load i32, ptr %10, align 4
  %25 = call i32 @uv__udp_try_send(ptr noundef %20, ptr noundef %21, i32 noundef %22, ptr noundef %23, i32 noundef %24)
  store i32 %25, ptr %5, align 4
  store i32 1, ptr %11, align 4
  br label %26

26:                                               ; preds = %19, %17
  call void @llvm.lifetime.end.p0(i64 4, ptr %10) #13
  %27 = load i32, ptr %5, align 4
  ret i32 %27
}