; Function Attrs: nounwind uwtable
define dso_local i32 @uv_udp_try_send(ptr noundef %0, ptr noundef %1, i32 noundef %2, ptr noundef %3) local_unnamed_addr #0 {
  %5 = getelementptr inbounds nuw i8, ptr %0, i64 16
  %6 = load i32, ptr %5, align 8
  %.not.i = icmp eq i32 %6, 15
  br i1 %.not.i, label %7, label %uv__udp_check_before_send.exit.thread

7:                                                ; preds = %4
  %cond.i = icmp eq ptr %3, null
  %8 = getelementptr inbounds nuw i8, ptr %0, i64 88
  %9 = load i32, ptr %8, align 8
  %10 = and i32 %9, 33554432
  %.not15.i = icmp eq i32 %10, 0
  br i1 %cond.i, label %12, label %11

11:                                               ; preds = %7
  br i1 %.not15.i, label %13, label %uv__udp_check_before_send.exit.thread

12:                                               ; preds = %7
  br i1 %.not15.i, label %uv__udp_check_before_send.exit.thread, label %uv__udp_check_before_send.exit

13:                                               ; preds = %11
  %14 = load i16, ptr %3, align 2
  switch i16 %14, label %uv__udp_check_before_send.exit.thread [
    i16 2, label %16
    i16 10, label %uv__udp_check_before_send.exit
    i16 1, label %15
  ]

15:                                               ; preds = %13
  br label %uv__udp_check_before_send.exit

16:                                               ; preds = %13
  br label %uv__udp_check_before_send.exit

uv__udp_check_before_send.exit:                   ; preds = %13, %16, %15, %12
  %.010.i = phi i32 [ 0, %12 ], [ 110, %15 ], [ 16, %16 ], [ 28, %13 ]
  %17 = tail call i32 @uv__udp_try_send(ptr noundef nonnull %0, ptr noundef %1, i32 noundef %2, ptr noundef %3, i32 noundef %.010.i) #26
  br label %uv__udp_check_before_send.exit.thread

uv__udp_check_before_send.exit.thread:            ; preds = %12, %13, %11, %4, %uv__udp_check_before_send.exit
  %.0 = phi i32 [ %17, %uv__udp_check_before_send.exit ], [ -22, %13 ], [ -106, %11 ], [ -22, %4 ], [ -89, %12 ]
  ret i32 %.0
}